target datalayout = "e-m:e-p270:32:32-p271:32:32-p272:64:64-i64:64-i128:128-f80:128-n8:16:32:64-S128"
target triple = "x86_64-pc-linux-gnu"

%union._Py_HashSecret_t = type { %struct.anon.1 }
%struct.anon.1 = type { [16 x i8], i64 }
%struct.PyWideStringList = type { i64, ptr }
%struct.PyConfig = type { i32, i32, i32, i32, i32, i32, i64, i32, i32, i32, i32, i32, i32, i32, ptr, i32, ptr, ptr, ptr, i32, %struct.PyWideStringList, %struct.PyWideStringList, %struct.PyWideStringList, %struct.PyWideStringList, i32, i32, i32, i32, i32, i32, i32, i32, i32, i32, i32, i32, i32, ptr, ptr, ptr, i32, i32, i32, i32, i32, ptr, ptr, ptr, ptr, i32, %struct.PyWideStringList, ptr, ptr, ptr, ptr, ptr, ptr, ptr, i32, ptr, ptr, ptr, ptr, i32, i32, i32 }
%struct.PyStatus = type { i32, ptr, ptr, i32 }

@_Py_HashSecret = external global %union._Py_HashSecret_t, align 8
@_Py_HashSecret_Initialized = internal global i32 0, align 4
@__func__._Py_HashRandomization_Init = private unnamed_addr constant [27 x i8] c"_Py_HashRandomization_Init\00", align 1
@.str = private unnamed_addr constant [50 x i8] c"failed to get random numbers to initialize Python\00", align 1

; Function Attrs: nounwind uwtable
define internal void @lcg_urandom(i32 noundef %0, ptr noundef %1, i64 noundef %2) #0 {
  %4 = alloca i32, align 4
  %5 = alloca ptr, align 8
  %6 = alloca i64, align 8
  %7 = alloca i64, align 8
  %8 = alloca i32, align 4
  store i32 %0, ptr %4, align 4, !tbaa !10
  store ptr %1, ptr %5, align 8, !tbaa !28
  store i64 %2, ptr %6, align 8, !tbaa !8
  call void @llvm.lifetime.start.p0(i64 8, ptr %7) #5
  call void @llvm.lifetime.start.p0(i64 4, ptr %8) #5
  %9 = load i32, ptr %4, align 4, !tbaa !10
  store i32 %9, ptr %8, align 4, !tbaa !10
  store i64 0, ptr %7, align 8, !tbaa !8
  br label %10

10:                                               ; preds = %26, %3
  %11 = load i64, ptr %7, align 8, !tbaa !8
  %12 = load i64, ptr %6, align 8, !tbaa !8
  %13 = icmp ult i64 %11, %12
  br i1 %13, label %14, label %29

14:                                               ; preds = %10
  %15 = load i32, ptr %8, align 4, !tbaa !10
  %16 = mul i32 %15, 214013
  store i32 %16, ptr %8, align 4, !tbaa !10
  %17 = load i32, ptr %8, align 4, !tbaa !10
  %18 = add i32 %17, 2531011
  store i32 %18, ptr %8, align 4, !tbaa !10
  %19 = load i32, ptr %8, align 4, !tbaa !10
  %20 = lshr i32 %19, 16
  %21 = and i32 %20, 255
  %22 = trunc i32 %21 to i8
  %23 = load ptr, ptr %5, align 8, !tbaa !28
  %24 = load i64, ptr %7, align 8, !tbaa !8
  %25 = getelementptr i8, ptr %23, i64 %24
  store i8 %22, ptr %25, align 1, !tbaa !29
  br label %26

26:                                               ; preds = %14
  %27 = load i64, ptr %7, align 8, !tbaa !8
  %28 = add i64 %27, 1
  store i64 %28, ptr %7, align 8, !tbaa !8
  br label %10, !llvm.loop !30

29:                                               ; preds = %10
  call void @llvm.lifetime.end.p0(i64 4, ptr %8) #5
  call void @llvm.lifetime.end.p0(i64 8, ptr %7) #5
  ret void
}

; Function Attrs: nounwind uwtable
define hidden void @_Py_HashRandomization_Init(ptr dead_on_unwind noalias writable sret(%struct.PyStatus) align 8 %0, ptr noundef %1) #0 {
  %3 = alloca ptr, align 8
  %4 = alloca ptr, align 8
  %5 = alloca i64, align 8
  %6 = alloca i32, align 4
  %7 = alloca i32, align 4
  store ptr %1, ptr %3, align 8, !tbaa !14
  call void @llvm.lifetime.start.p0(i64 8, ptr %4) #5
  store ptr @_Py_HashSecret, ptr %4, align 8, !tbaa !4
  call void @llvm.lifetime.start.p0(i64 8, ptr %5) #5
  store i64 24, ptr %5, align 8, !tbaa !8
  %8 = load i32, ptr @_Py_HashSecret_Initialized, align 4, !tbaa !10
  %9 = icmp ne i32 %8, 0
  br i1 %9, label %10, label %12

10:                                               ; preds = %2
  call void @llvm.memset.p0.i64(ptr align 8 %0, i8 0, i64 32, i1 false)
  %11 = getelementptr inbounds nuw %struct.PyStatus, ptr %0, i32 0, i32 0
  store i32 0, ptr %11, align 8, !tbaa !16
  store i32 1, ptr %6, align 4
  br label %52

12:                                               ; preds = %2
  store i32 1, ptr @_Py_HashSecret_Initialized, align 4, !tbaa !10
  %13 = load ptr, ptr %3, align 8, !tbaa !14
  %14 = getelementptr inbounds nuw %struct.PyConfig, ptr %13, i32 0, i32 5
  %15 = load i32, ptr %14, align 4, !tbaa !19
  %16 = icmp ne i32 %15, 0
  br i1 %16, label %17, label %33

17:                                               ; preds = %12
  %18 = load ptr, ptr %3, align 8, !tbaa !14
  %19 = getelementptr inbounds nuw %struct.PyConfig, ptr %18, i32 0, i32 6
  %20 = load i64, ptr %19, align 8, !tbaa !24
  %21 = icmp eq i64 %20, 0
  br i1 %21, label %22, label %25

22:                                               ; preds = %17
  %23 = load ptr, ptr %4, align 8, !tbaa !4
  %24 = load i64, ptr %5, align 8, !tbaa !8
  call void @llvm.memset.p0.i64(ptr align 1 %23, i8 0, i64 %24, i1 false)
  br label %32

25:                                               ; preds = %17
  %26 = load ptr, ptr %3, align 8, !tbaa !14
  %27 = getelementptr inbounds nuw %struct.PyConfig, ptr %26, i32 0, i32 6
  %28 = load i64, ptr %27, align 8, !tbaa !24
  %29 = trunc i64 %28 to i32
  %30 = load ptr, ptr %4, align 8, !tbaa !4
  %31 = load i64, ptr %5, align 8, !tbaa !8
  call void @lcg_urandom(i32 noundef %29, ptr noundef %30, i64 noundef %31)
  br label %32

32:                                               ; preds = %25, %22
  br label %50

33:                                               ; preds = %12
  call void @llvm.lifetime.start.p0(i64 4, ptr %7) #5
  %34 = load ptr, ptr %4, align 8, !tbaa !4
  %35 = load i64, ptr %5, align 8, !tbaa !8
  %36 = call i32 @pyurandom(ptr noundef %34, i64 noundef %35, i32 noundef 0, i32 noundef 0)
  store i32 %36, ptr %7, align 4, !tbaa !10
  %37 = load i32, ptr %7, align 4, !tbaa !10
  %38 = icmp slt i32 %37, 0
  br i1 %38, label %39, label %46

39:                                               ; preds = %33
  %40 = getelementptr inbounds nuw %struct.PyStatus, ptr %0, i32 0, i32 0
  store i32 1, ptr %40, align 8, !tbaa !16
  %41 = getelementptr i8, ptr %0, i64 4
  call void @llvm.memset.p0.i64(ptr align 4 %41, i8 0, i64 4, i1 false)
  %42 = getelementptr inbounds nuw %struct.PyStatus, ptr %0, i32 0, i32 1
  store ptr @__func__._Py_HashRandomization_Init, ptr %42, align 8, !tbaa !25
  %43 = getelementptr inbounds nuw %struct.PyStatus, ptr %0, i32 0, i32 2
  store ptr @.str, ptr %43, align 8, !tbaa !26
  %44 = getelementptr inbounds nuw %struct.PyStatus, ptr %0, i32 0, i32 3
  store i32 0, ptr %44, align 8, !tbaa !27
  %45 = getelementptr i8, ptr %0, i64 28
  call void @llvm.memset.p0.i64(ptr align 4 %45, i8 0, i64 4, i1 false)
  store i32 1, ptr %6, align 4
  br label %47

46:                                               ; preds = %33
  store i32 0, ptr %6, align 4
  br label %47

47:                                               ; preds = %46, %39
  call void @llvm.lifetime.end.p0(i64 4, ptr %7) #5
  %48 = load i32, ptr %6, align 4
  switch i32 %48, label %52 [
    i32 0, label %49
  ]

49:                                               ; preds = %47
  br label %50

50:                                               ; preds = %49, %32
  call void @llvm.memset.p0.i64(ptr align 8 %0, i8 0, i64 32, i1 false)
  %51 = getelementptr inbounds nuw %struct.PyStatus, ptr %0, i32 0, i32 0
  store i32 0, ptr %51, align 8, !tbaa !16
  store i32 1, ptr %6, align 4
  br label %52

52:                                               ; preds = %50, %47, %10
  call void @llvm.lifetime.end.p0(i64 8, ptr %5) #5
  call void @llvm.lifetime.end.p0(i64 8, ptr %4) #5
  ret void
}