; Function Attrs: nounwind uwtable
define hidden void @_Py_HashRandomization_Init(ptr dead_on_unwind noalias writable writeonly sret(%struct.PyStatus) align 8 captures(none) %0, ptr noundef readonly captures(none) %1) local_unnamed_addr #0 {
  %.b = load i1, ptr @_Py_HashSecret_Initialized, align 4
  br i1 %.b, label %3, label %4

3:                                                ; preds = %2
  tail call void @llvm.memset.p0.i64(ptr noundef nonnull align 8 dereferenceable(32) %0, i8 0, i64 32, i1 false)
  br label %30

4:                                                ; preds = %2
  store i1 true, ptr @_Py_HashSecret_Initialized, align 4
  %5 = getelementptr inbounds nuw i8, ptr %1, i64 20
  %6 = load i32, ptr %5, align 4, !tbaa !188
  %.not = icmp eq i32 %6, 0
  br i1 %.not, label %21, label %7

7:                                                ; preds = %4
  %8 = getelementptr inbounds nuw i8, ptr %1, i64 24
  %9 = load i64, ptr %8, align 8, !tbaa !189
  %10 = icmp eq i64 %9, 0
  br i1 %10, label %11, label %12

11:                                               ; preds = %7
  tail call void @llvm.memset.p0.i64(ptr noundef nonnull align 8 dereferenceable(24) @_Py_HashSecret, i8 0, i64 24, i1 false)
  br label %.critedge

12:                                               ; preds = %7
  %13 = trunc i64 %9 to i32
  br label %14

14:                                               ; preds = %14, %12
  %.02.i = phi i32 [ %13, %12 ], [ %16, %14 ]
  %.081.i = phi i64 [ 0, %12 ], [ %20, %14 ]
  %15 = mul i32 %.02.i, 214013
  %16 = add i32 %15, 2531011
  %17 = lshr i32 %16, 16
  %18 = trunc i32 %17 to i8
  %19 = getelementptr i8, ptr @_Py_HashSecret, i64 %.081.i
  store i8 %18, ptr %19, align 1, !tbaa !190
  %20 = add nuw nsw i64 %.081.i, 1
  %exitcond.not.i = icmp eq i64 %20, 24
  br i1 %exitcond.not.i, label %.critedge, label %14, !llvm.loop !191

21:                                               ; preds = %4
  %22 = tail call fastcc i32 @pyurandom(ptr noundef nonnull @_Py_HashSecret, i64 noundef 24, i32 noundef 0, i32 noundef 0)
  %23 = icmp sgt i32 %22, -1
  br i1 %23, label %.critedge, label %24

24:                                               ; preds = %21
  store i32 1, ptr %0, align 8, !tbaa !192
  %25 = getelementptr inbounds nuw i8, ptr %0, i64 4
  store i32 0, ptr %25, align 4
  %26 = getelementptr inbounds nuw i8, ptr %0, i64 8
  store ptr @__func__._Py_HashRandomization_Init, ptr %26, align 8, !tbaa !194
  %27 = getelementptr inbounds nuw i8, ptr %0, i64 16
  store ptr @.str, ptr %27, align 8, !tbaa !195
  %28 = getelementptr inbounds nuw i8, ptr %0, i64 24
  store i32 0, ptr %28, align 8, !tbaa !196
  %29 = getelementptr inbounds nuw i8, ptr %0, i64 28
  store i32 0, ptr %29, align 4
  br label %30

.critedge:                                        ; preds = %14, %21, %11
  tail call void @llvm.memset.p0.i64(ptr noundef nonnull align 8 dereferenceable(32) %0, i8 0, i64 32, i1 false)
  br label %30

30:                                               ; preds = %24, %.critedge, %3
  ret void
}